target datalayout = "e-m:e-p270:32:32-p271:32:32-p272:64:64-i64:64-i128:128-f80:128-n8:16:32:64-S128"
target triple = "x86_64-pc-linux-gnu"

%struct.reassembly_table = type { ptr, ptr, ptr, ptr, ptr }
%struct.reassembly_table_functions = type { ptr, ptr, ptr, ptr, ptr, ptr }

@subdissector_call_table = internal global ptr null, align 8
@subdissector_reply_table = internal global ptr null, align 8
@rpc_progs = global ptr null, align 8
@.str.25 = private unnamed_addr constant [9 x i8] c"rpc.call\00", align 1
@.str.28 = private unnamed_addr constant [10 x i8] c"rpc.reply\00", align 1
@proto_rpc = internal global i32 0, align 4
@rpc_tcp_handle = internal global ptr null, align 8
@rpc_handle = internal global ptr null, align 8
@.str.220 = private unnamed_addr constant [4 x i8] c"rpc\00", align 1
@.str.222 = private unnamed_addr constant [22 x i8] c"Remote Procedure Call\00", align 1
@.str.223 = private unnamed_addr constant [4 x i8] c"RPC\00", align 1
@.str.224 = private unnamed_addr constant [21 x i8] c"Unknown RPC protocol\00", align 1
@.str.225 = private unnamed_addr constant [12 x i8] c"Unknown RPC\00", align 1
@.str.226 = private unnamed_addr constant [12 x i8] c"rpc-unknown\00", align 1
@proto_rpc_unknown = internal global i32 0, align 4
@.str.227 = private unnamed_addr constant [19 x i8] c"RPC Call Functions\00", align 1
@.str.228 = private unnamed_addr constant [20 x i8] c"RPC Reply Functions\00", align 1
@rpc_reassembly_table = internal global ptr null, align 8
@rpc_fragment_table = internal global %struct.reassembly_table zeroinitializer, align 8
@addresses_ports_reassembly_table_functions = external constant %struct.reassembly_table_functions, align 8
@.str.229 = private unnamed_addr constant [23 x i8] c"desegment_rpc_over_tcp\00", align 1
@.str.230 = private unnamed_addr constant [64 x i8] c"Reassemble RPC over TCP messages spanning multiple TCP segments\00", align 1
@.str.231 = private unnamed_addr constant [204 x i8] c"Whether the RPC dissector should reassemble messages spanning multiple TCP segments. To use this option, you must also enable \22Allow subdissectors to reassemble TCP streams\22 in the TCP protocol settings.\00", align 1
@rpc_desegment = internal global i8 1, align 1
@.str.232 = private unnamed_addr constant [24 x i8] c"defragment_rpc_over_tcp\00", align 1
@.str.233 = private unnamed_addr constant [44 x i8] c"Reassemble fragmented RPC-over-TCP messages\00", align 1
@.str.234 = private unnamed_addr constant [67 x i8] c"Whether the RPC dissector should defragment RPC-over-TCP messages.\00", align 1
@rpc_defragment = internal global i8 1, align 1
@.str.235 = private unnamed_addr constant [17 x i8] c"max_tcp_pdu_size\00", align 1
@.str.236 = private unnamed_addr constant [35 x i8] c"Maximum size of a RPC-over-TCP PDU\00", align 1
@.str.237 = private unnamed_addr constant [150 x i8] c"Set the maximum size of RPCoverTCP PDUs.  If the size field of the record marker is larger than this value it will not be considered a valid RPC PDU.\00", align 1
@max_rpc_tcp_pdu_size = internal global i32 4194304, align 4
@.str.238 = private unnamed_addr constant [25 x i8] c"dissect_unknown_programs\00", align 1
@.str.239 = private unnamed_addr constant [36 x i8] c"Dissect unknown RPC program numbers\00", align 1
@rpc_dissect_unknown_programs = internal global i8 0, align 1
@.str.241 = private unnamed_addr constant [20 x i8] c"find_fragment_start\00", align 1
@.str.242 = private unnamed_addr constant [69 x i8] c"Attempt to locate start-of-fragment in partial RPC-over-TCP captures\00", align 1
@.str.243 = private unnamed_addr constant [168 x i8] c"Whether the RPC dissector should attempt to locate RPC PDU boundaries when initial fragment alignment is not known.  This may cause false positives, or slow operation.\00", align 1
@rpc_find_fragment_start = internal global i8 0, align 1
@.str.244 = private unnamed_addr constant [8 x i8] c"rpc-tcp\00", align 1
@.str.245 = private unnamed_addr constant [13 x i8] c"rpc-with-tls\00", align 1
@rpc_tls_handle = internal global ptr null, align 8
@rpc_tap = internal global i32 0, align 4
@authgss_contexts = hidden global ptr null, align 8

; Function Attrs: null_pointer_is_valid sspstrong uwtable
define hidden void @proto_register_rpc() #0 {
  %1 = alloca ptr, align 8
  %2 = alloca ptr, align 8
  call void @llvm.lifetime.start.p0(i64 8, ptr %1) #18
  call void @llvm.lifetime.start.p0(i64 8, ptr %2) #18
  %3 = call i32 @proto_register_protocol(ptr noundef @.str.222, ptr noundef @.str.223, ptr noundef @.str.220)
  store i32 %3, ptr @proto_rpc, align 4
  %4 = call i32 @proto_register_protocol(ptr noundef @.str.224, ptr noundef @.str.225, ptr noundef @.str.226)
  store i32 %4, ptr @proto_rpc_unknown, align 4
  %5 = load i32, ptr @proto_rpc, align 4
  %6 = call ptr @register_custom_dissector_table(ptr noundef @.str.25, ptr noundef @.str.227, i32 noundef %5, ptr noundef @rpc_proc_hash, ptr noundef @rpc_proc_equal, ptr noundef @g_free)
  store ptr %6, ptr @subdissector_call_table, align 8
  %7 = load i32, ptr @proto_rpc, align 4
  %8 = call ptr @register_custom_dissector_table(ptr noundef @.str.28, ptr noundef @.str.228, i32 noundef %7, ptr noundef @rpc_proc_hash, ptr noundef @rpc_proc_equal, ptr noundef @g_free)
  store ptr %8, ptr @subdissector_reply_table, align 8
  %9 = load i32, ptr @proto_rpc, align 4
  call void @proto_register_field_array(i32 noundef %9, ptr noundef @proto_register_rpc.hf, i32 noundef 80)
  call void @proto_register_subtree_array(ptr noundef @proto_register_rpc.ett, i32 noundef 15)
  %10 = load i32, ptr @proto_rpc, align 4
  %11 = call ptr @expert_register_protocol(i32 noundef %10)
  store ptr %11, ptr %2, align 8
  %12 = load ptr, ptr %2, align 8
  call void @expert_register_field_array(ptr noundef %12, ptr noundef @proto_register_rpc.ei, i32 noundef 2)
  %13 = call ptr @wmem_epan_scope()
  %14 = call ptr @wmem_file_scope()
  %15 = call noalias ptr @wmem_map_new_autoreset(ptr noundef %13, ptr noundef %14, ptr noundef @rpc_fragment_hash, ptr noundef @rpc_fragment_equal)
  store ptr %15, ptr @rpc_reassembly_table, align 8
  call void @reassembly_table_register(ptr noundef @rpc_fragment_table, ptr noundef @addresses_ports_reassembly_table_functions)
  %16 = load i32, ptr @proto_rpc, align 4
  %17 = call ptr @prefs_register_protocol(i32 noundef %16, ptr noundef null)
  store ptr %17, ptr %1, align 8
  %18 = load ptr, ptr %1, align 8
  call void @prefs_register_bool_preference(ptr noundef %18, ptr noundef @.str.229, ptr noundef @.str.230, ptr noundef @.str.231, ptr noundef @rpc_desegment)
  %19 = load ptr, ptr %1, align 8
  call void @prefs_register_bool_preference(ptr noundef %19, ptr noundef @.str.232, ptr noundef @.str.233, ptr noundef @.str.234, ptr noundef @rpc_defragment)
  %20 = load ptr, ptr %1, align 8
  call void @prefs_register_uint_preference(ptr noundef %20, ptr noundef @.str.235, ptr noundef @.str.236, ptr noundef @.str.237, i32 noundef 10, ptr noundef @max_rpc_tcp_pdu_size)
  %21 = load ptr, ptr %1, align 8
  call void @prefs_register_bool_preference(ptr noundef %21, ptr noundef @.str.238, ptr noundef @.str.239, ptr noundef @.str.240, ptr noundef @rpc_dissect_unknown_programs)
  %22 = load ptr, ptr %1, align 8
  call void @prefs_register_bool_preference(ptr noundef %22, ptr noundef @.str.241, ptr noundef @.str.242, ptr noundef @.str.243, ptr noundef @rpc_find_fragment_start)
  %23 = load i32, ptr @proto_rpc, align 4
  %24 = call ptr @register_dissector(ptr noundef @.str.220, ptr noundef @dissect_rpc, i32 noundef %23)
  store ptr %24, ptr @rpc_handle, align 8
  %25 = load i32, ptr @proto_rpc, align 4
  %26 = call ptr @register_dissector(ptr noundef @.str.244, ptr noundef @dissect_rpc_tcp, i32 noundef %25)
  store ptr %26, ptr @rpc_tcp_handle, align 8
  %27 = load i32, ptr @proto_rpc, align 4
  %28 = call ptr @register_dissector(ptr noundef @.str.245, ptr noundef @dissect_rpc_tls, i32 noundef %27)
  store ptr %28, ptr @rpc_tls_handle, align 8
  %29 = call i32 @register_tap(ptr noundef @.str.220)
  store i32 %29, ptr @rpc_tap, align 4
  %30 = load i32, ptr @proto_rpc, align 4
  call void @register_srt_table(i32 noundef %30, ptr noundef null, i32 noundef 1, ptr noundef @rpcstat_packet, ptr noundef @rpcstat_init, ptr noundef @rpcstat_param)
  call void @register_stat_tap_table_ui(ptr noundef @proto_register_rpc.rpc_prog_stat_table)
  %31 = call ptr @g_hash_table_new_full(ptr noundef @g_direct_hash, ptr noundef @g_direct_equal, ptr noundef null, ptr noundef @rpc_prog_free_val)
  store ptr %31, ptr @rpc_progs, align 8
  %32 = call ptr @wmem_epan_scope()
  %33 = call ptr @wmem_file_scope()
  %34 = call noalias ptr @wmem_tree_new_autoreset(ptr noundef %32, ptr noundef %33)
  store ptr %34, ptr @authgss_contexts, align 8
  call void @register_shutdown_routine(ptr noundef @rpc_shutdown)
  call void @llvm.lifetime.end.p0(i64 8, ptr %2) #18
  call void @llvm.lifetime.end.p0(i64 8, ptr %1) #18
  ret void
}