; Function Attrs: null_pointer_is_valid sspstrong uwtable
define hidden void @proto_register_rpc() local_unnamed_addr #0 {
  %1 = tail call i32 @proto_register_protocol(ptr noundef nonnull @.str.222, ptr noundef nonnull @.str.223, ptr noundef nonnull @.str.220)
  store i32 %1, ptr @proto_rpc, align 4
  %2 = tail call i32 @proto_register_protocol(ptr noundef nonnull @.str.224, ptr noundef nonnull @.str.225, ptr noundef nonnull @.str.226)
  store i32 %2, ptr @proto_rpc_unknown, align 4
  %3 = load i32, ptr @proto_rpc, align 4
  %4 = tail call ptr @register_custom_dissector_table(ptr noundef nonnull @.str.25, ptr noundef nonnull @.str.227, i32 noundef %3, ptr noundef nonnull @rpc_proc_hash, ptr noundef nonnull @rpc_proc_equal, ptr noundef nonnull @g_free)
  store ptr %4, ptr @subdissector_call_table, align 8
  %5 = load i32, ptr @proto_rpc, align 4
  %6 = tail call ptr @register_custom_dissector_table(ptr noundef nonnull @.str.28, ptr noundef nonnull @.str.228, i32 noundef %5, ptr noundef nonnull @rpc_proc_hash, ptr noundef nonnull @rpc_proc_equal, ptr noundef nonnull @g_free)
  store ptr %6, ptr @subdissector_reply_table, align 8
  %7 = load i32, ptr @proto_rpc, align 4
  tail call void @proto_register_field_array(i32 noundef %7, ptr noundef nonnull @proto_register_rpc.hf, i32 noundef 80)
  tail call void @proto_register_subtree_array(ptr noundef nonnull @proto_register_rpc.ett, i32 noundef 15)
  %8 = load i32, ptr @proto_rpc, align 4
  %9 = tail call ptr @expert_register_protocol(i32 noundef %8)
  tail call void @expert_register_field_array(ptr noundef %9, ptr noundef nonnull @proto_register_rpc.ei, i32 noundef 2)
  %10 = tail call ptr @wmem_epan_scope()
  %11 = tail call ptr @wmem_file_scope()
  %12 = tail call noalias ptr @wmem_map_new_autoreset(ptr noundef %10, ptr noundef %11, ptr noundef nonnull @rpc_fragment_hash, ptr noundef nonnull @rpc_fragment_equal)
  store ptr %12, ptr @rpc_reassembly_table, align 8
  tail call void @reassembly_table_register(ptr noundef nonnull @rpc_fragment_table, ptr noundef nonnull @addresses_ports_reassembly_table_functions)
  %13 = load i32, ptr @proto_rpc, align 4
  %14 = tail call ptr @prefs_register_protocol(i32 noundef %13, ptr noundef null)
  tail call void @prefs_register_bool_preference(ptr noundef %14, ptr noundef nonnull @.str.229, ptr noundef nonnull @.str.230, ptr noundef nonnull @.str.231, ptr noundef nonnull @rpc_desegment)
  tail call void @prefs_register_bool_preference(ptr noundef %14, ptr noundef nonnull @.str.232, ptr noundef nonnull @.str.233, ptr noundef nonnull @.str.234, ptr noundef nonnull @rpc_defragment)
  tail call void @prefs_register_uint_preference(ptr noundef %14, ptr noundef nonnull @.str.235, ptr noundef nonnull @.str.236, ptr noundef nonnull @.str.237, i32 noundef 10, ptr noundef nonnull @max_rpc_tcp_pdu_size)
  tail call void @prefs_register_bool_preference(ptr noundef %14, ptr noundef nonnull @.str.238, ptr noundef nonnull @.str.239, ptr noundef nonnull @.str.240, ptr noundef nonnull @rpc_dissect_unknown_programs)
  tail call void @prefs_register_bool_preference(ptr noundef %14, ptr noundef nonnull @.str.241, ptr noundef nonnull @.str.242, ptr noundef nonnull @.str.243, ptr noundef nonnull @rpc_find_fragment_start)
  %15 = load i32, ptr @proto_rpc, align 4
  %16 = tail call ptr @register_dissector(ptr noundef nonnull @.str.220, ptr noundef nonnull @dissect_rpc, i32 noundef %15)
  store ptr %16, ptr @rpc_handle, align 8
  %17 = load i32, ptr @proto_rpc, align 4
  %18 = tail call ptr @register_dissector(ptr noundef nonnull @.str.244, ptr noundef nonnull @dissect_rpc_tcp, i32 noundef %17)
  store ptr %18, ptr @rpc_tcp_handle, align 8
  %19 = load i32, ptr @proto_rpc, align 4
  %20 = tail call ptr @register_dissector(ptr noundef nonnull @.str.245, ptr noundef nonnull @dissect_rpc_tls, i32 noundef %19)
  store ptr %20, ptr @rpc_tls_handle, align 8
  %21 = tail call i32 @register_tap(ptr noundef nonnull @.str.220)
  store i32 %21, ptr @rpc_tap, align 4
  %22 = load i32, ptr @proto_rpc, align 4
  tail call void @register_srt_table(i32 noundef %22, ptr noundef null, i32 noundef 1, ptr noundef nonnull @rpcstat_packet, ptr noundef nonnull @rpcstat_init, ptr noundef nonnull @rpcstat_param)
  tail call void @register_stat_tap_table_ui(ptr noundef nonnull @proto_register_rpc.rpc_prog_stat_table)
  %23 = tail call ptr @g_hash_table_new_full(ptr noundef nonnull @g_direct_hash, ptr noundef nonnull @g_direct_equal, ptr noundef null, ptr noundef nonnull @rpc_prog_free_val)
  store ptr %23, ptr @rpc_progs, align 8
  %24 = tail call ptr @wmem_epan_scope()
  %25 = tail call ptr @wmem_file_scope()
  %26 = tail call noalias ptr @wmem_tree_new_autoreset(ptr noundef %24, ptr noundef %25)
  store ptr %26, ptr @authgss_contexts, align 8
  tail call void @register_shutdown_routine(ptr noundef nonnull @rpc_shutdown)
  ret void
}